target datalayout = "e-m:e-p270:32:32-p271:32:32-p272:64:64-i64:64-i128:128-f80:128-n8:16:32:64-S128"
target triple = "x86_64-pc-linux-gnu"

%struct.DdManager = type { %struct.DdNode, ptr, ptr, ptr, ptr, ptr, ptr, ptr, i32, i32, double, double, double, i32, i32, i32, i32, i32, i32, ptr, ptr, %struct.DdSubtable, i32, i32, i32, i32, i32, i32, i32, double, i32, i32, i32, ptr, i64, double, i32, ptr, ptr, ptr, ptr, ptr, ptr, ptr, i32, ptr, ptr, ptr, ptr, ptr, ptr, i32, i32, i32, double, i32, i32, i32, i32, double, double, i32, i32, i32, i32, i32, i32, i32, i32, i32, ptr, ptr, i32, i32, i32, i32, i32, i32, ptr, ptr, ptr, ptr, ptr, ptr, ptr, ptr, i32, i64, i64, i64, i32, i64, i64, double, double, double, double, double, double, i32, ptr, ptr, i64 }
%struct.DdNode = type { i32, i32, ptr, %union.anon, i64 }
%union.anon = type { %struct.DdChildren }
%struct.DdChildren = type { ptr, ptr }
%struct.DdSubtable = type { ptr, i32, i32, i32, i32, i32, i32, i32, i32, i32, i32, i32 }

@.str.33 = private unnamed_addr constant [2 x i8] c"0\00", align 1
@.str.34 = private unnamed_addr constant [2 x i8] c"1\00", align 1
@.str.35 = private unnamed_addr constant [2 x i8] c"@\00", align 1
@.str.36 = private unnamed_addr constant [2 x i8] c"-\00", align 1
@.str.37 = private unnamed_addr constant [4 x i8] c" 1\0A\00", align 1

; Function Attrs: nounwind uwtable
define internal void @zdd_print_minterm_aux(ptr noundef %0, ptr noundef %1, i32 noundef %2, ptr noundef %3) #0 {
  %5 = alloca ptr, align 8
  %6 = alloca ptr, align 8
  %7 = alloca i32, align 4
  %8 = alloca ptr, align 8
  %9 = alloca ptr, align 8
  %10 = alloca ptr, align 8
  %11 = alloca i32, align 4
  %12 = alloca i32, align 4
  %13 = alloca ptr, align 8
  store ptr %0, ptr %5, align 8
  store ptr %1, ptr %6, align 8
  store i32 %2, ptr %7, align 4
  store ptr %3, ptr %8, align 8
  %14 = load ptr, ptr %5, align 8
  %15 = getelementptr inbounds %struct.DdManager, ptr %14, i32 0, i32 1
  %16 = load ptr, ptr %15, align 8
  store ptr %16, ptr %13, align 8
  %17 = load ptr, ptr %6, align 8
  %18 = ptrtoint ptr %17 to i64
  %19 = and i64 %18, -2
  %20 = inttoptr i64 %19 to ptr
  %21 = getelementptr inbounds %struct.DdNode, ptr %20, i32 0, i32 0
  %22 = load i32, ptr %21, align 8
  %23 = icmp eq i32 %22, 2147483647
  br i1 %23, label %24, label %103

24:                                               ; preds = %4
  %25 = load ptr, ptr %6, align 8
  %26 = load ptr, ptr %13, align 8
  %27 = icmp eq ptr %25, %26
  br i1 %27, label %28, label %102

28:                                               ; preds = %24
  %29 = load i32, ptr %7, align 4
  %30 = load ptr, ptr %5, align 8
  %31 = getelementptr inbounds %struct.DdManager, ptr %30, i32 0, i32 16
  %32 = load i32, ptr %31, align 4
  %33 = icmp ne i32 %29, %32
  br i1 %33, label %34, label %50

34:                                               ; preds = %28
  %35 = load ptr, ptr %8, align 8
  %36 = load ptr, ptr %5, align 8
  %37 = getelementptr inbounds %struct.DdManager, ptr %36, i32 0, i32 40
  %38 = load ptr, ptr %37, align 8
  %39 = load i32, ptr %7, align 4
  %40 = sext i32 %39 to i64
  %41 = getelementptr inbounds i32, ptr %38, i64 %40
  %42 = load i32, ptr %41, align 4
  %43 = sext i32 %42 to i64
  %44 = getelementptr inbounds i32, ptr %35, i64 %43
  store i32 0, ptr %44, align 4
  %45 = load ptr, ptr %5, align 8
  %46 = load ptr, ptr %6, align 8
  %47 = load i32, ptr %7, align 4
  %48 = add nsw i32 %47, 1
  %49 = load ptr, ptr %8, align 8
  call void @zdd_print_minterm_aux(ptr noundef %45, ptr noundef %46, i32 noundef %48, ptr noundef %49)
  br label %190

50:                                               ; preds = %28
  store i32 0, ptr %11, align 4
  br label %51

51:                                               ; preds = %94, %50
  %52 = load i32, ptr %11, align 4
  %53 = load ptr, ptr %5, align 8
  %54 = getelementptr inbounds %struct.DdManager, ptr %53, i32 0, i32 16
  %55 = load i32, ptr %54, align 4
  %56 = icmp slt i32 %52, %55
  br i1 %56, label %57, label %97

57:                                               ; preds = %51
  %58 = load ptr, ptr %8, align 8
  %59 = load i32, ptr %11, align 4
  %60 = sext i32 %59 to i64
  %61 = getelementptr inbounds i32, ptr %58, i64 %60
  %62 = load i32, ptr %61, align 4
  store i32 %62, ptr %12, align 4
  %63 = load i32, ptr %12, align 4
  %64 = icmp eq i32 %63, 0
  br i1 %64, label %65, label %70

65:                                               ; preds = %57
  %66 = load ptr, ptr %5, align 8
  %67 = getelementptr inbounds %struct.DdManager, ptr %66, i32 0, i32 84
  %68 = load ptr, ptr %67, align 8
  %69 = call i32 (ptr, ptr, ...) @fprintf(ptr noundef %68, ptr noundef @.str.33) #5
  br label %93

70:                                               ; preds = %57
  %71 = load i32, ptr %12, align 4
  %72 = icmp eq i32 %71, 1
  br i1 %72, label %73, label %78

73:                                               ; preds = %70
  %74 = load ptr, ptr %5, align 8
  %75 = getelementptr inbounds %struct.DdManager, ptr %74, i32 0, i32 84
  %76 = load ptr, ptr %75, align 8
  %77 = call i32 (ptr, ptr, ...) @fprintf(ptr noundef %76, ptr noundef @.str.34) #5
  br label %92

78:                                               ; preds = %70
  %79 = load i32, ptr %12, align 4
  %80 = icmp eq i32 %79, 3
  br i1 %80, label %81, label %86

81:                                               ; preds = %78
  %82 = load ptr, ptr %5, align 8
  %83 = getelementptr inbounds %struct.DdManager, ptr %82, i32 0, i32 84
  %84 = load ptr, ptr %83, align 8
  %85 = call i32 (ptr, ptr, ...) @fprintf(ptr noundef %84, ptr noundef @.str.35) #5
  br label %91

86:                                               ; preds = %78
  %87 = load ptr, ptr %5, align 8
  %88 = getelementptr inbounds %struct.DdManager, ptr %87, i32 0, i32 84
  %89 = load ptr, ptr %88, align 8
  %90 = call i32 (ptr, ptr, ...) @fprintf(ptr noundef %89, ptr noundef @.str.36) #5
  br label %91

91:                                               ; preds = %86, %81
  br label %92

92:                                               ; preds = %91, %73
  br label %93

93:                                               ; preds = %92, %65
  br label %94

94:                                               ; preds = %93
  %95 = load i32, ptr %11, align 4
  %96 = add nsw i32 %95, 1
  store i32 %96, ptr %11, align 4
  br label %51, !llvm.loop !6

97:                                               ; preds = %51
  %98 = load ptr, ptr %5, align 8
  %99 = getelementptr inbounds %struct.DdManager, ptr %98, i32 0, i32 84
  %100 = load ptr, ptr %99, align 8
  %101 = call i32 (ptr, ptr, ...) @fprintf(ptr noundef %100, ptr noundef @.str.37) #5
  br label %102

102:                                              ; preds = %97, %24
  br label %189

103:                                              ; preds = %4
  %104 = load i32, ptr %7, align 4
  %105 = load ptr, ptr %6, align 8
  %106 = getelementptr inbounds %struct.DdNode, ptr %105, i32 0, i32 0
  %107 = load i32, ptr %106, align 8
  %108 = icmp eq i32 %107, 2147483647
  br i1 %108, label %109, label %113

109:                                              ; preds = %103
  %110 = load ptr, ptr %6, align 8
  %111 = getelementptr inbounds %struct.DdNode, ptr %110, i32 0, i32 0
  %112 = load i32, ptr %111, align 8
  br label %123

113:                                              ; preds = %103
  %114 = load ptr, ptr %5, align 8
  %115 = getelementptr inbounds %struct.DdManager, ptr %114, i32 0, i32 38
  %116 = load ptr, ptr %115, align 8
  %117 = load ptr, ptr %6, align 8
  %118 = getelementptr inbounds %struct.DdNode, ptr %117, i32 0, i32 0
  %119 = load i32, ptr %118, align 8
  %120 = zext i32 %119 to i64
  %121 = getelementptr inbounds i32, ptr %116, i64 %120
  %122 = load i32, ptr %121, align 4
  br label %123

123:                                              ; preds = %113, %109
  %124 = phi i32 [ %112, %109 ], [ %122, %113 ]
  %125 = icmp ne i32 %104, %124
  br i1 %125, label %126, label %142

126:                                              ; preds = %123
  %127 = load ptr, ptr %8, align 8
  %128 = load ptr, ptr %5, align 8
  %129 = getelementptr inbounds %struct.DdManager, ptr %128, i32 0, i32 40
  %130 = load ptr, ptr %129, align 8
  %131 = load i32, ptr %7, align 4
  %132 = sext i32 %131 to i64
  %133 = getelementptr inbounds i32, ptr %130, i64 %132
  %134 = load i32, ptr %133, align 4
  %135 = sext i32 %134 to i64
  %136 = getelementptr inbounds i32, ptr %127, i64 %135
  store i32 0, ptr %136, align 4
  %137 = load ptr, ptr %5, align 8
  %138 = load ptr, ptr %6, align 8
  %139 = load i32, ptr %7, align 4
  %140 = add nsw i32 %139, 1
  %141 = load ptr, ptr %8, align 8
  call void @zdd_print_minterm_aux(ptr noundef %137, ptr noundef %138, i32 noundef %140, ptr noundef %141)
  br label %190

142:                                              ; preds = %123
  %143 = load ptr, ptr %6, align 8
  %144 = getelementptr inbounds %struct.DdNode, ptr %143, i32 0, i32 3
  %145 = getelementptr inbounds %struct.DdChildren, ptr %144, i32 0, i32 1
  %146 = load ptr, ptr %145, align 8
  store ptr %146, ptr %10, align 8
  %147 = load ptr, ptr %6, align 8
  %148 = getelementptr inbounds %struct.DdNode, ptr %147, i32 0, i32 3
  %149 = getelementptr inbounds %struct.DdChildren, ptr %148, i32 0, i32 0
  %150 = load ptr, ptr %149, align 8
  store ptr %150, ptr %9, align 8
  %151 = load ptr, ptr %9, align 8
  %152 = load ptr, ptr %10, align 8
  %153 = icmp eq ptr %151, %152
  br i1 %153, label %154, label %166

154:                                              ; preds = %142
  %155 = load ptr, ptr %8, align 8
  %156 = load ptr, ptr %6, align 8
  %157 = getelementptr inbounds %struct.DdNode, ptr %156, i32 0, i32 0
  %158 = load i32, ptr %157, align 8
  %159 = zext i32 %158 to i64
  %160 = getelementptr inbounds i32, ptr %155, i64 %159
  store i32 2, ptr %160, align 4
  %161 = load ptr, ptr %5, align 8
  %162 = load ptr, ptr %10, align 8
  %163 = load i32, ptr %7, align 4
  %164 = add nsw i32 %163, 1
  %165 = load ptr, ptr %8, align 8
  call void @zdd_print_minterm_aux(ptr noundef %161, ptr noundef %162, i32 noundef %164, ptr noundef %165)
  br label %190

166:                                              ; preds = %142
  %167 = load ptr, ptr %8, align 8
  %168 = load ptr, ptr %6, align 8
  %169 = getelementptr inbounds %struct.DdNode, ptr %168, i32 0, i32 0
  %170 = load i32, ptr %169, align 8
  %171 = zext i32 %170 to i64
  %172 = getelementptr inbounds i32, ptr %167, i64 %171
  store i32 1, ptr %172, align 4
  %173 = load ptr, ptr %5, align 8
  %174 = load ptr, ptr %9, align 8
  %175 = load i32, ptr %7, align 4
  %176 = add nsw i32 %175, 1
  %177 = load ptr, ptr %8, align 8
  call void @zdd_print_minterm_aux(ptr noundef %173, ptr noundef %174, i32 noundef %176, ptr noundef %177)
  %178 = load ptr, ptr %8, align 8
  %179 = load ptr, ptr %6, align 8
  %180 = getelementptr inbounds %struct.DdNode, ptr %179, i32 0, i32 0
  %181 = load i32, ptr %180, align 8
  %182 = zext i32 %181 to i64
  %183 = getelementptr inbounds i32, ptr %178, i64 %182
  store i32 0, ptr %183, align 4
  %184 = load ptr, ptr %5, align 8
  %185 = load ptr, ptr %10, align 8
  %186 = load i32, ptr %7, align 4
  %187 = add nsw i32 %186, 1
  %188 = load ptr, ptr %8, align 8
  call void @zdd_print_minterm_aux(ptr noundef %184, ptr noundef %185, i32 noundef %187, ptr noundef %188)
  br label %189

189:                                              ; preds = %166, %102
  br label %190

190:                                              ; preds = %189, %154, %126, %34
  ret void
}