; Function Attrs: nofree nounwind uwtable
define internal fastcc void @zdd_print_minterm_aux(ptr noundef readonly captures(none) %0, ptr noundef %1, i32 noundef %2, ptr noundef nonnull captures(none) %3) unnamed_addr #2 {
  %5 = getelementptr inbounds nuw i8, ptr %0, i64 320
  %6 = getelementptr inbounds nuw i8, ptr %0, i64 336
  %7 = getelementptr inbounds nuw i8, ptr %0, i64 40
  %8 = getelementptr inbounds nuw i8, ptr %0, i64 140
  br label %tailrecurse.outer

tailrecurse.outer:                                ; preds = %tailrecurse.outer.backedge, %4
  %.tr71.ph = phi ptr [ %1, %4 ], [ %55, %tailrecurse.outer.backedge ]
  %.tr72.ph = phi i32 [ %2, %4 ], [ %60, %tailrecurse.outer.backedge ]
  %9 = ptrtoint ptr %.tr71.ph to i64
  %10 = and i64 %9, -2
  %11 = inttoptr i64 %10 to ptr
  %12 = sext i32 %.tr72.ph to i64
  br label %tailrecurse

tailrecurse:                                      ; preds = %tailrecurse.backedge, %tailrecurse.outer
  %indvars.iv = phi i64 [ %indvars.iv.next, %tailrecurse.backedge ], [ %12, %tailrecurse.outer ]
  %13 = load i32, ptr %11, align 8
  %14 = icmp eq i32 %13, 2147483647
  br i1 %14, label %15, label %41

15:                                               ; preds = %tailrecurse
  %16 = load ptr, ptr %7, align 8
  %17 = icmp eq ptr %.tr71.ph, %16
  br i1 %17, label %18, label %.loopexit

18:                                               ; preds = %15
  %19 = load i32, ptr %8, align 4
  %20 = trunc nsw i64 %indvars.iv to i32
  %.not67 = icmp eq i32 %19, %20
  br i1 %.not67, label %.preheader, label %tailrecurse.backedge

.preheader:                                       ; preds = %18
  %21 = icmp sgt i64 %indvars.iv, 0
  br i1 %21, label %.lr.ph, label %._crit_edge

.lr.ph:                                           ; preds = %.preheader
  %22 = getelementptr inbounds nuw i8, ptr %0, i64 608
  br label %28

tailrecurse.backedge:                             ; preds = %18, %49
  %23 = load ptr, ptr %6, align 8
  %24 = getelementptr inbounds i32, ptr %23, i64 %indvars.iv
  %25 = load i32, ptr %24, align 4
  %26 = sext i32 %25 to i64
  %27 = getelementptr inbounds i32, ptr %3, i64 %26
  store i32 0, ptr %27, align 4
  %indvars.iv.next = add nsw i64 %indvars.iv, 1
  br label %tailrecurse

28:                                               ; preds = %.lr.ph, %34
  %indvars.iv81 = phi i64 [ 0, %.lr.ph ], [ %indvars.iv.next82, %34 ]
  %29 = getelementptr inbounds nuw i32, ptr %3, i64 %indvars.iv81
  %30 = load i32, ptr %29, align 4
  %31 = load ptr, ptr %22, align 8
  %32 = icmp ult i32 %30, 4
  br i1 %32, label %switch.lookup, label %34

switch.lookup:                                    ; preds = %28
  %33 = zext nneg i32 %30 to i64
  %switch.gep = getelementptr inbounds nuw [4 x i32], ptr @switch.table.zdd_print_minterm_aux, i64 0, i64 %33
  %switch.load = load i32, ptr %switch.gep, align 4
  br label %34

34:                                               ; preds = %28, %switch.lookup
  %.sink = phi i32 [ %switch.load, %switch.lookup ], [ 45, %28 ]
  %fputc70 = tail call i32 @fputc(i32 %.sink, ptr %31)
  %indvars.iv.next82 = add nuw nsw i64 %indvars.iv81, 1
  %35 = load i32, ptr %8, align 4
  %36 = sext i32 %35 to i64
  %37 = icmp slt i64 %indvars.iv.next82, %36
  br i1 %37, label %28, label %._crit_edge, !llvm.loop !6

._crit_edge:                                      ; preds = %34, %.preheader
  %38 = getelementptr inbounds nuw i8, ptr %0, i64 608
  %39 = load ptr, ptr %38, align 8
  %40 = tail call i64 @fwrite(ptr nonnull @.str.37, i64 3, i64 1, ptr %39)
  br label %.loopexit

41:                                               ; preds = %tailrecurse
  %42 = load i32, ptr %.tr71.ph, align 8
  %43 = icmp eq i32 %42, 2147483647
  br i1 %43, label %49, label %44

44:                                               ; preds = %41
  %45 = load ptr, ptr %5, align 8
  %46 = zext i32 %42 to i64
  %47 = getelementptr inbounds nuw i32, ptr %45, i64 %46
  %48 = load i32, ptr %47, align 4
  br label %49

49:                                               ; preds = %41, %44
  %50 = phi i32 [ %48, %44 ], [ 2147483647, %41 ]
  %51 = trunc nsw i64 %indvars.iv to i32
  %.not = icmp eq i32 %50, %51
  br i1 %.not, label %52, label %tailrecurse.backedge

52:                                               ; preds = %49
  %53 = getelementptr inbounds nuw i8, ptr %.tr71.ph, i64 16
  %54 = getelementptr inbounds nuw i8, ptr %.tr71.ph, i64 24
  %55 = load ptr, ptr %54, align 8
  %56 = load ptr, ptr %53, align 8
  %57 = icmp eq ptr %56, %55
  %58 = zext i32 %42 to i64
  %59 = getelementptr inbounds nuw i32, ptr %3, i64 %58
  %60 = add nsw i32 %50, 1
  br i1 %57, label %61, label %62

61:                                               ; preds = %52
  store i32 2, ptr %59, align 4
  br label %tailrecurse.outer.backedge

tailrecurse.outer.backedge:                       ; preds = %61, %62
  br label %tailrecurse.outer

62:                                               ; preds = %52
  store i32 1, ptr %59, align 4
  tail call fastcc void @zdd_print_minterm_aux(ptr noundef %0, ptr noundef %56, i32 noundef %60, ptr noundef %3)
  %63 = load i32, ptr %.tr71.ph, align 8
  %64 = zext i32 %63 to i64
  %65 = getelementptr inbounds nuw i32, ptr %3, i64 %64
  store i32 0, ptr %65, align 4
  br label %tailrecurse.outer.backedge

.loopexit:                                        ; preds = %15, %._crit_edge
  ret void
}